target datalayout = "e-m:e-p270:32:32-p271:32:32-p272:64:64-i64:64-i128:128-f80:128-n8:16:32:64-S128"
target triple = "x86_64-pc-linux-gnu"

%struct.cli_ctx_tag = type { ptr, ptr, ptr, ptr, ptr, ptr, ptr, i64, ptr, i32, i32, ptr, i32, i32, ptr, [16 x i8], ptr, ptr, ptr, ptr, ptr, ptr, %struct.timeval, i8, i8 }
%struct.timeval = type { i64, i64 }
%struct.cl_engine = type { i32, i32, i32, [2 x i32], i32, i32, i32, ptr, i32, i64, i32, i32, i64, i64, i32, i32, i32, i32, ptr, ptr, ptr, ptr, ptr, ptr, ptr, ptr, ptr, ptr, ptr, ptr, ptr, ptr, ptr, ptr, ptr, ptr, ptr, i64, ptr, %struct.crtmgr, ptr, ptr, ptr, ptr, ptr, ptr, ptr, ptr, ptr, ptr, ptr, ptr, ptr, ptr, ptr, ptr, ptr, %struct.cli_all_bc, [7 x ptr], [7 x i32], i32, i32, i32, i32, i64, i64, i64, i64, i64, ptr, ptr, ptr, ptr, ptr, ptr, ptr, ptr, ptr, i32, i32, i32, i64, i64, i64, ptr }
%struct.crtmgr = type { ptr, i32 }
%struct.cli_all_bc = type { ptr, i32, ptr, %struct.cli_environment, i32 }
%struct.cli_environment = type { i32, i32, i32, i32, i32, i32, i32, [65 x i8], [65 x i8], [65 x i8], [65 x i8], [65 x i8], [65 x i8], [65 x i8], i8, i8, i8, i8, i8, i8, i8, i8, i8 }

@.str.194 = private unnamed_addr constant [19 x i8] c"in cli_scanszdd()\0A\00", align 1
@.str.195 = private unnamed_addr constant [52 x i8] c"MSEXPAND: Can't generate temporary file/descriptor\0A\00", align 1
@.str.196 = private unnamed_addr constant [32 x i8] c"MSEXPAND: Decompressed into %s\0A\00", align 1

; Function Attrs: nounwind uwtable
define i32 @cli_magic_scan_desc(i32 noundef %0, ptr noundef %1, ptr noundef %2, ptr noundef %3, i32 noundef %4) #0 {
  %6 = alloca i32, align 4
  %7 = alloca ptr, align 8
  %8 = alloca ptr, align 8
  %9 = alloca ptr, align 8
  %10 = alloca i32, align 4
  store i32 %0, ptr %6, align 4
  store ptr %1, ptr %7, align 8
  store ptr %2, ptr %8, align 8
  store ptr %3, ptr %9, align 8
  store i32 %4, ptr %10, align 4
  %11 = load i32, ptr %6, align 4
  %12 = load ptr, ptr %7, align 8
  %13 = load ptr, ptr %8, align 8
  %14 = load ptr, ptr %9, align 8
  %15 = load i32, ptr %10, align 4
  %16 = call i32 @cli_magic_scan_desc_type(i32 noundef %11, ptr noundef %12, ptr noundef %13, i32 noundef 0, ptr noundef %14, i32 noundef %15)
  ret i32 %16
}

; Function Attrs: nounwind uwtable
define internal i32 @cli_scanszdd(ptr noundef %0) #0 {
  %2 = alloca i32, align 4
  %3 = alloca ptr, align 8
  %4 = alloca i32, align 4
  %5 = alloca i32, align 4
  %6 = alloca ptr, align 8
  store ptr %0, ptr %3, align 8
  call void (ptr, ...) @cli_dbgmsg(ptr noundef @.str.194)
  %7 = load ptr, ptr %3, align 8
  %8 = getelementptr inbounds %struct.cli_ctx_tag, ptr %7, i32 0, i32 2
  %9 = load ptr, ptr %8, align 8
  %10 = call i32 @cli_gentempfd(ptr noundef %9, ptr noundef %6, ptr noundef %4)
  store i32 %10, ptr %5, align 4
  %11 = icmp ne i32 %10, 0
  br i1 %11, label %12, label %14

12:                                               ; preds = %1
  call void (ptr, ...) @cli_dbgmsg(ptr noundef @.str.195)
  %13 = load i32, ptr %5, align 4
  store i32 %13, ptr %2, align 4
  br label %61

14:                                               ; preds = %1
  %15 = load ptr, ptr %3, align 8
  %16 = load i32, ptr %4, align 4
  %17 = call i32 @cli_msexpand(ptr noundef %15, i32 noundef %16)
  store i32 %17, ptr %5, align 4
  %18 = load i32, ptr %5, align 4
  %19 = icmp ne i32 %18, 0
  br i1 %19, label %20, label %38

20:                                               ; preds = %14
  %21 = load i32, ptr %4, align 4
  %22 = call i32 @close(i32 noundef %21)
  %23 = load ptr, ptr %3, align 8
  %24 = getelementptr inbounds %struct.cli_ctx_tag, ptr %23, i32 0, i32 6
  %25 = load ptr, ptr %24, align 8
  %26 = getelementptr inbounds %struct.cl_engine, ptr %25, i32 0, i32 8
  %27 = load i32, ptr %26, align 8
  %28 = icmp ne i32 %27, 0
  br i1 %28, label %35, label %29

29:                                               ; preds = %20
  %30 = load ptr, ptr %6, align 8
  %31 = call i32 @cli_unlink(ptr noundef %30)
  %32 = icmp ne i32 %31, 0
  br i1 %32, label %33, label %34

33:                                               ; preds = %29
  store i32 10, ptr %5, align 4
  br label %34

34:                                               ; preds = %33, %29
  br label %35

35:                                               ; preds = %34, %20
  %36 = load ptr, ptr %6, align 8
  call void @free(ptr noundef %36) #11
  %37 = load i32, ptr %5, align 4
  store i32 %37, ptr %2, align 4
  br label %61

38:                                               ; preds = %14
  %39 = load ptr, ptr %6, align 8
  call void (ptr, ...) @cli_dbgmsg(ptr noundef @.str.196, ptr noundef %39)
  %40 = load i32, ptr %4, align 4
  %41 = load ptr, ptr %6, align 8
  %42 = load ptr, ptr %3, align 8
  %43 = call i32 @cli_magic_scan_desc(i32 noundef %40, ptr noundef %41, ptr noundef %42, ptr noundef null, i32 noundef 0)
  store i32 %43, ptr %5, align 4
  %44 = load i32, ptr %4, align 4
  %45 = call i32 @close(i32 noundef %44)
  %46 = load ptr, ptr %3, align 8
  %47 = getelementptr inbounds %struct.cli_ctx_tag, ptr %46, i32 0, i32 6
  %48 = load ptr, ptr %47, align 8
  %49 = getelementptr inbounds %struct.cl_engine, ptr %48, i32 0, i32 8
  %50 = load i32, ptr %49, align 8
  %51 = icmp ne i32 %50, 0
  br i1 %51, label %58, label %52

52:                                               ; preds = %38
  %53 = load ptr, ptr %6, align 8
  %54 = call i32 @cli_unlink(ptr noundef %53)
  %55 = icmp ne i32 %54, 0
  br i1 %55, label %56, label %57

56:                                               ; preds = %52
  store i32 10, ptr %5, align 4
  br label %57

57:                                               ; preds = %56, %52
  br label %58

58:                                               ; preds = %57, %38
  %59 = load ptr, ptr %6, align 8
  call void @free(ptr noundef %59) #11
  %60 = load i32, ptr %5, align 4
  store i32 %60, ptr %2, align 4
  br label %61

61:                                               ; preds = %58, %35, %12
  %62 = load i32, ptr %2, align 4
  ret i32 %62
}