; Function Attrs: nounwind uwtable
define internal fastcc i32 @cli_scanszdd(ptr noundef %0) unnamed_addr #0 {
  %2 = alloca i32, align 4
  %3 = alloca ptr, align 8
  tail call void (ptr, ...) @cli_dbgmsg(ptr noundef nonnull @.str.194) #16
  %4 = getelementptr inbounds nuw i8, ptr %0, i64 16
  %5 = load ptr, ptr %4, align 8
  %6 = call i32 @cli_gentempfd(ptr noundef %5, ptr noundef nonnull %3, ptr noundef nonnull %2) #16
  %.not = icmp eq i32 %6, 0
  br i1 %.not, label %8, label %7

7:                                                ; preds = %1
  call void (ptr, ...) @cli_dbgmsg(ptr noundef nonnull @.str.195) #16
  br label %39

8:                                                ; preds = %1
  %9 = load i32, ptr %2, align 4
  %10 = call i32 @cli_msexpand(ptr noundef nonnull %0, i32 noundef %9) #16
  %.not12 = icmp eq i32 %10, 0
  br i1 %.not12, label %23, label %11

11:                                               ; preds = %8
  %12 = load i32, ptr %2, align 4
  %13 = call i32 @close(i32 noundef %12) #16
  %14 = getelementptr inbounds nuw i8, ptr %0, i64 48
  %15 = load ptr, ptr %14, align 8
  %16 = getelementptr inbounds nuw i8, ptr %15, i64 40
  %17 = load i32, ptr %16, align 8
  %.not15 = icmp eq i32 %17, 0
  br i1 %.not15, label %18, label %21

18:                                               ; preds = %11
  %19 = load ptr, ptr %3, align 8
  %20 = call i32 @cli_unlink(ptr noundef %19) #16
  %.not16 = icmp eq i32 %20, 0
  %spec.select = select i1 %.not16, i32 %10, i32 10
  br label %21

21:                                               ; preds = %18, %11
  %.0 = phi i32 [ %10, %11 ], [ %spec.select, %18 ]
  %22 = load ptr, ptr %3, align 8
  call void @free(ptr noundef %22) #16
  br label %39

23:                                               ; preds = %8
  %24 = load ptr, ptr %3, align 8
  call void (ptr, ...) @cli_dbgmsg(ptr noundef nonnull @.str.196, ptr noundef %24) #16
  %25 = load i32, ptr %2, align 4
  %26 = load ptr, ptr %3, align 8
  %27 = call i32 @cli_magic_scan_desc_type(i32 noundef %25, ptr noundef %26, ptr noundef nonnull %0, i32 noundef 0, ptr noundef null, i32 noundef 0)
  %28 = load i32, ptr %2, align 4
  %29 = call i32 @close(i32 noundef %28) #16
  %30 = getelementptr inbounds nuw i8, ptr %0, i64 48
  %31 = load ptr, ptr %30, align 8
  %32 = getelementptr inbounds nuw i8, ptr %31, i64 40
  %33 = load i32, ptr %32, align 8
  %.not13 = icmp eq i32 %33, 0
  br i1 %.not13, label %34, label %37

34:                                               ; preds = %23
  %35 = load ptr, ptr %3, align 8
  %36 = call i32 @cli_unlink(ptr noundef %35) #16
  %.not14 = icmp eq i32 %36, 0
  %spec.select17 = select i1 %.not14, i32 %27, i32 10
  br label %37

37:                                               ; preds = %34, %23
  %.1 = phi i32 [ %27, %23 ], [ %spec.select17, %34 ]
  %38 = load ptr, ptr %3, align 8
  call void @free(ptr noundef %38) #16
  br label %39

39:                                               ; preds = %37, %21, %7
  %.09 = phi i32 [ %6, %7 ], [ %.0, %21 ], [ %.1, %37 ]
  ret i32 %.09
}